; Function Attrs: mustprogress nounwind uwtable
define void @_ZN3gmx27DensityFittingForceProvider4ImplD2Ev(ptr noundef nonnull align 8 dereferenceable(304) %0) unnamed_addr #2 align 2 personality ptr @__gxx_personality_v0 {
  %2 = getelementptr inbounds nuw i8, ptr %0, i64 176
  tail call void @_ZN3gmx17TranslateAndScaleD1Ev(ptr noundef nonnull align 8 dereferenceable(8) %2) #26
  %3 = getelementptr inbounds nuw i8, ptr %0, i64 168
  tail call void @_ZN3gmx29DensityFittingAmplitudeLookupD1Ev(ptr noundef nonnull align 8 dereferenceable(8) %3) #26
  %4 = getelementptr inbounds nuw i8, ptr %0, i64 144
  %5 = load ptr, ptr %4, align 8, !tbaa !114
  %.not.i.i.i = icmp eq ptr %5, null
  br i1 %.not.i.i.i, label %_ZNSt6vectorIN3gmx11BasicVectorIfEESaIS2_EED2Ev.exit, label %6

6:                                                ; preds = %1
  %7 = getelementptr inbounds nuw i8, ptr %0, i64 160
  %8 = load ptr, ptr %7, align 8, !tbaa !117
  %9 = ptrtoint ptr %8 to i64
  %10 = ptrtoint ptr %5 to i64
  %11 = sub i64 %9, %10
  tail call void @_ZdlPvm(ptr noundef nonnull %5, i64 noundef %11) #29
  br label %_ZNSt6vectorIN3gmx11BasicVectorIfEESaIS2_EED2Ev.exit

_ZNSt6vectorIN3gmx11BasicVectorIfEESaIS2_EED2Ev.exit: ; preds = %1, %6
  %12 = getelementptr inbounds nuw i8, ptr %0, i64 120
  %13 = load ptr, ptr %12, align 8, !tbaa !114
  %.not.i.i.i1 = icmp eq ptr %13, null
  br i1 %.not.i.i.i1, label %_ZNSt6vectorIN3gmx11BasicVectorIfEESaIS2_EED2Ev.exit2, label %14

14:                                               ; preds = %_ZNSt6vectorIN3gmx11BasicVectorIfEESaIS2_EED2Ev.exit
  %15 = getelementptr inbounds nuw i8, ptr %0, i64 136
  %16 = load ptr, ptr %15, align 8, !tbaa !117
  %17 = ptrtoint ptr %16 to i64
  %18 = ptrtoint ptr %13 to i64
  %19 = sub i64 %17, %18
  tail call void @_ZdlPvm(ptr noundef nonnull %13, i64 noundef %19) #29
  br label %_ZNSt6vectorIN3gmx11BasicVectorIfEESaIS2_EED2Ev.exit2

_ZNSt6vectorIN3gmx11BasicVectorIfEESaIS2_EED2Ev.exit2: ; preds = %_ZNSt6vectorIN3gmx11BasicVectorIfEESaIS2_EED2Ev.exit, %14
  %20 = getelementptr inbounds nuw i8, ptr %0, i64 112
  tail call void @_ZN3gmx19DensityFittingForceD1Ev(ptr noundef nonnull align 8 dereferenceable(8) %20) #26
  %21 = getelementptr inbounds nuw i8, ptr %0, i64 104
  tail call void @_ZN3gmx24DensitySimilarityMeasureD1Ev(ptr noundef nonnull align 8 dereferenceable(8) %21) #26
  %22 = getelementptr inbounds nuw i8, ptr %0, i64 96
  tail call void @_ZN3gmx16GaussTransform3DD1Ev(ptr noundef nonnull align 8 dereferenceable(8) %22) #26
  ret void
}